target datalayout = "e-m:e-p270:32:32-p271:32:32-p272:64:64-i64:64-i128:128-f80:128-n8:16:32:64-S128"
target triple = "x86_64-pc-linux-gnu"

%struct.TValue = type { %union.Value, i8 }
%union.Value = type { ptr }
%struct.TString = type { ptr, i8, i8, i8, i8, i32, %union.anon, ptr, ptr, ptr }
%union.anon = type { i64 }
%struct.BuffFS = type { ptr, ptr, i64, i64, i32, [219 x i8] }
%struct.lua_State = type { ptr, i8, i8, i8, i8, i16, %union.StkIdRel, ptr, ptr, %union.StkIdRel, %union.StkIdRel, ptr, %union.StkIdRel, ptr, ptr, ptr, %struct.CallInfo, ptr, i64, i32, i32, i32, i32, i32, %struct.anon.4 }
%union.StkIdRel = type { ptr }
%struct.CallInfo = type { %union.StkIdRel, %union.StkIdRel, ptr, ptr, %union.anon.0, %union.anon.3, i32 }
%union.anon.0 = type { %struct.anon.2 }
%struct.anon.2 = type { ptr, i64, i64 }
%union.anon.3 = type { i32 }
%struct.anon.4 = type { i32, i32 }
%union.StackValue = type { %struct.TValue }

@.str.4 = private unnamed_addr constant [4 x i8] c"...\00", align 1

; Function Attrs: nounwind uwtable
define internal void @pushbuff(ptr noundef %0, ptr noundef %1) #0 {
  %3 = alloca ptr, align 8
  %4 = alloca ptr, align 8
  %5 = alloca ptr, align 8
  %6 = alloca ptr, align 8
  %7 = alloca ptr, align 8
  %8 = alloca ptr, align 8
  store ptr %0, ptr %3, align 8, !tbaa !11
  store ptr %1, ptr %4, align 8, !tbaa !39
  call void @llvm.lifetime.start.p0(i64 8, ptr %5) #10
  %9 = load ptr, ptr %4, align 8, !tbaa !39
  store ptr %9, ptr %5, align 8, !tbaa !40
  %10 = load ptr, ptr %5, align 8, !tbaa !40
  %11 = getelementptr inbounds nuw %struct.BuffFS, ptr %10, i32 0, i32 4
  %12 = load i32, ptr %11, align 8, !tbaa !47
  switch i32 %12, label %48 [
    i32 1, label %13
    i32 2, label %15
  ]

13:                                               ; preds = %2
  %14 = load ptr, ptr %3, align 8, !tbaa !11
  call void @luaD_throw(ptr noundef %14, i32 noundef 4) #12
  unreachable

15:                                               ; preds = %2
  %16 = load ptr, ptr %5, align 8, !tbaa !40
  %17 = getelementptr inbounds nuw %struct.BuffFS, ptr %16, i32 0, i32 2
  %18 = load i64, ptr %17, align 8, !tbaa !45
  %19 = load ptr, ptr %5, align 8, !tbaa !40
  %20 = getelementptr inbounds nuw %struct.BuffFS, ptr %19, i32 0, i32 3
  %21 = load i64, ptr %20, align 8, !tbaa !46
  %22 = sub i64 %18, %21
  %23 = icmp ult i64 %22, 3
  br i1 %23, label %24, label %34

24:                                               ; preds = %15
  %25 = load ptr, ptr %5, align 8, !tbaa !40
  %26 = getelementptr inbounds nuw %struct.BuffFS, ptr %25, i32 0, i32 1
  %27 = load ptr, ptr %26, align 8, !tbaa !44
  %28 = load ptr, ptr %5, align 8, !tbaa !40
  %29 = getelementptr inbounds nuw %struct.BuffFS, ptr %28, i32 0, i32 3
  %30 = load i64, ptr %29, align 8, !tbaa !46
  %31 = getelementptr inbounds nuw i8, ptr %27, i64 %30
  %32 = getelementptr inbounds i8, ptr %31, i64 -3
  %33 = call ptr @strcpy(ptr noundef %32, ptr noundef @.str.4) #10
  br label %47

34:                                               ; preds = %15
  %35 = load ptr, ptr %5, align 8, !tbaa !40
  %36 = getelementptr inbounds nuw %struct.BuffFS, ptr %35, i32 0, i32 1
  %37 = load ptr, ptr %36, align 8, !tbaa !44
  %38 = load ptr, ptr %5, align 8, !tbaa !40
  %39 = getelementptr inbounds nuw %struct.BuffFS, ptr %38, i32 0, i32 3
  %40 = load i64, ptr %39, align 8, !tbaa !46
  %41 = getelementptr inbounds nuw i8, ptr %37, i64 %40
  %42 = call ptr @strcpy(ptr noundef %41, ptr noundef @.str.4) #10
  %43 = load ptr, ptr %5, align 8, !tbaa !40
  %44 = getelementptr inbounds nuw %struct.BuffFS, ptr %43, i32 0, i32 3
  %45 = load i64, ptr %44, align 8, !tbaa !46
  %46 = add i64 %45, 3
  store i64 %46, ptr %44, align 8, !tbaa !46
  br label %47

47:                                               ; preds = %34, %24
  br label %48

48:                                               ; preds = %2, %47
  call void @llvm.lifetime.start.p0(i64 8, ptr %6) #10
  %49 = load ptr, ptr %3, align 8, !tbaa !11
  %50 = load ptr, ptr %5, align 8, !tbaa !40
  %51 = getelementptr inbounds nuw %struct.BuffFS, ptr %50, i32 0, i32 1
  %52 = load ptr, ptr %51, align 8, !tbaa !44
  %53 = load ptr, ptr %5, align 8, !tbaa !40
  %54 = getelementptr inbounds nuw %struct.BuffFS, ptr %53, i32 0, i32 3
  %55 = load i64, ptr %54, align 8, !tbaa !46
  %56 = call ptr @luaS_newlstr(ptr noundef %49, ptr noundef %52, i64 noundef %55)
  store ptr %56, ptr %6, align 8, !tbaa !32
  call void @llvm.lifetime.start.p0(i64 8, ptr %7) #10
  %57 = load ptr, ptr %3, align 8, !tbaa !11
  %58 = getelementptr inbounds nuw %struct.lua_State, ptr %57, i32 0, i32 6
  %59 = load ptr, ptr %58, align 8, !tbaa !8
  store ptr %59, ptr %7, align 8, !tbaa !14
  call void @llvm.lifetime.start.p0(i64 8, ptr %8) #10
  %60 = load ptr, ptr %6, align 8, !tbaa !32
  store ptr %60, ptr %8, align 8, !tbaa !32
  %61 = load ptr, ptr %8, align 8, !tbaa !32
  %62 = load ptr, ptr %7, align 8, !tbaa !14
  %63 = getelementptr inbounds nuw %struct.TValue, ptr %62, i32 0, i32 0
  store ptr %61, ptr %63, align 8, !tbaa !8
  %64 = load ptr, ptr %8, align 8, !tbaa !32
  %65 = getelementptr inbounds nuw %struct.TString, ptr %64, i32 0, i32 1
  %66 = load i8, ptr %65, align 8, !tbaa !34
  %67 = zext i8 %66 to i32
  %68 = or i32 %67, 64
  %69 = trunc i32 %68 to i8
  %70 = load ptr, ptr %7, align 8, !tbaa !14
  %71 = getelementptr inbounds nuw %struct.TValue, ptr %70, i32 0, i32 1
  store i8 %69, ptr %71, align 8, !tbaa !16
  call void @llvm.lifetime.end.p0(i64 8, ptr %8) #10
  call void @llvm.lifetime.end.p0(i64 8, ptr %7) #10
  %72 = load ptr, ptr %3, align 8, !tbaa !11
  %73 = getelementptr inbounds nuw %struct.lua_State, ptr %72, i32 0, i32 6
  %74 = load ptr, ptr %73, align 8, !tbaa !8
  %75 = getelementptr inbounds nuw %union.StackValue, ptr %74, i32 1
  store ptr %75, ptr %73, align 8, !tbaa !8
  call void @llvm.lifetime.end.p0(i64 8, ptr %6) #10
  br label %76

76:                                               ; preds = %48
  call void @llvm.lifetime.end.p0(i64 8, ptr %5) #10
  ret void
}