; Function Attrs: nounwind uwtable
define internal void @pushbuff(ptr noundef %0, ptr noundef captures(none) %1) #3 {
  %3 = getelementptr inbounds nuw i8, ptr %1, i64 32
  %4 = load i32, ptr %3, align 8, !tbaa !29
  switch i32 %4, label %21 [
    i32 1, label %5
    i32 2, label %6
  ]

5:                                                ; preds = %2
  tail call void @luaD_throw(ptr noundef %0, i32 noundef 4) #20
  unreachable

6:                                                ; preds = %2
  %7 = getelementptr inbounds nuw i8, ptr %1, i64 16
  %8 = load i64, ptr %7, align 8, !tbaa !27
  %9 = getelementptr inbounds nuw i8, ptr %1, i64 24
  %10 = load i64, ptr %9, align 8, !tbaa !28
  %11 = sub i64 %8, %10
  %12 = icmp ult i64 %11, 3
  %13 = getelementptr inbounds nuw i8, ptr %1, i64 8
  %14 = load ptr, ptr %13, align 8, !tbaa !26
  %15 = getelementptr inbounds nuw i8, ptr %14, i64 %10
  br i1 %12, label %16, label %18

16:                                               ; preds = %6
  %17 = getelementptr inbounds i8, ptr %15, i64 -3
  store i32 3026478, ptr %17, align 1
  br label %21

18:                                               ; preds = %6
  store i32 3026478, ptr %15, align 1
  %19 = load i64, ptr %9, align 8, !tbaa !28
  %20 = add i64 %19, 3
  store i64 %20, ptr %9, align 8, !tbaa !28
  br label %21

21:                                               ; preds = %16, %18, %2
  %22 = getelementptr inbounds nuw i8, ptr %1, i64 8
  %23 = load ptr, ptr %22, align 8, !tbaa !26
  %24 = getelementptr inbounds nuw i8, ptr %1, i64 24
  %25 = load i64, ptr %24, align 8, !tbaa !28
  %26 = tail call ptr @luaS_newlstr(ptr noundef %0, ptr noundef %23, i64 noundef %25) #18
  %27 = getelementptr inbounds nuw i8, ptr %0, i64 16
  %28 = load ptr, ptr %27, align 8, !tbaa !4
  store ptr %26, ptr %28, align 8, !tbaa !4
  %29 = getelementptr inbounds nuw i8, ptr %26, i64 8
  %30 = load i8, ptr %29, align 8, !tbaa !19
  %31 = or i8 %30, 64
  %32 = getelementptr inbounds nuw i8, ptr %28, i64 8
  store i8 %31, ptr %32, align 8, !tbaa !7
  %33 = load ptr, ptr %27, align 8, !tbaa !4
  %34 = getelementptr inbounds nuw i8, ptr %33, i64 16
  store ptr %34, ptr %27, align 8, !tbaa !4
  ret void
}